; Function Attrs: nounwind uwtable
define noundef ptr @ggml_rms_norm_back(ptr noundef captures(none) %0, ptr noundef %1, ptr noundef %2, float noundef %3) local_unnamed_addr #4 {
  %5 = load i32, ptr %1, align 8, !tbaa !40
  %6 = getelementptr inbounds nuw i8, ptr %1, i64 16
  %7 = tail call fastcc noundef ptr @ggml_new_tensor_impl(ptr noundef %0, i32 noundef %5, i32 noundef 4, ptr noundef nonnull readonly %6, ptr noundef null, i64 noundef 0)
  %.not.i = icmp eq ptr %7, null
  br i1 %.not.i, label %8, label %ggml_set_op_params.exit

8:                                                ; preds = %4
  tail call void (ptr, i32, ptr, ...) @ggml_abort(ptr noundef nonnull @.str.463, i32 noundef 112, ptr noundef nonnull @.str.13, ptr noundef nonnull @.str.464) #47
  unreachable

ggml_set_op_params.exit:                          ; preds = %4
  %9 = getelementptr inbounds nuw i8, ptr %7, i64 84
  store float %3, ptr %9, align 4
  %10 = getelementptr inbounds nuw i8, ptr %7, i64 80
  store i32 24, ptr %10, align 8, !tbaa !55
  %11 = getelementptr inbounds nuw i8, ptr %7, i64 152
  store ptr %1, ptr %11, align 8, !tbaa !81
  %12 = getelementptr inbounds nuw i8, ptr %7, i64 160
  store ptr %2, ptr %12, align 8, !tbaa !81
  ret ptr %7
}